target datalayout = "e-m:e-p270:32:32-p271:32:32-p272:64:64-i64:64-i128:128-f80:128-n8:16:32:64-S128"
target triple = "x86_64-pc-linux-gnu"

%struct.lexbor_dobject_t = type { ptr, ptr, i64, i64 }

; Function Attrs: nounwind uwtable
define hidden ptr @lexbor_dobject_destroy(ptr noundef %0, i1 noundef zeroext %1) #0 {
  %3 = alloca ptr, align 8
  %4 = alloca ptr, align 8
  %5 = alloca i8, align 1
  store ptr %0, ptr %4, align 8
  %6 = zext i1 %1 to i8
  store i8 %6, ptr %5, align 1
  %7 = load ptr, ptr %4, align 8
  %8 = icmp eq ptr %7, null
  br i1 %8, label %9, label %10

9:                                                ; preds = %2
  store ptr null, ptr %3, align 8
  br label %32

10:                                               ; preds = %2
  %11 = load ptr, ptr %4, align 8
  %12 = getelementptr inbounds %struct.lexbor_dobject_t, ptr %11, i32 0, i32 0
  %13 = load ptr, ptr %12, align 8
  %14 = call ptr @lexbor_mem_destroy(ptr noundef %13, i1 noundef zeroext true)
  %15 = load ptr, ptr %4, align 8
  %16 = getelementptr inbounds %struct.lexbor_dobject_t, ptr %15, i32 0, i32 0
  store ptr %14, ptr %16, align 8
  %17 = load ptr, ptr %4, align 8
  %18 = getelementptr inbounds %struct.lexbor_dobject_t, ptr %17, i32 0, i32 1
  %19 = load ptr, ptr %18, align 8
  %20 = call ptr @lexbor_array_destroy(ptr noundef %19, i1 noundef zeroext true)
  %21 = load ptr, ptr %4, align 8
  %22 = getelementptr inbounds %struct.lexbor_dobject_t, ptr %21, i32 0, i32 1
  store ptr %20, ptr %22, align 8
  %23 = load i8, ptr %5, align 1
  %24 = trunc i8 %23 to i1
  %25 = zext i1 %24 to i32
  %26 = icmp eq i32 %25, 1
  br i1 %26, label %27, label %30

27:                                               ; preds = %10
  %28 = load ptr, ptr %4, align 8
  %29 = call ptr @lexbor_free(ptr noundef %28)
  store ptr %29, ptr %3, align 8
  br label %32

30:                                               ; preds = %10
  %31 = load ptr, ptr %4, align 8
  store ptr %31, ptr %3, align 8
  br label %32

32:                                               ; preds = %30, %27, %9
  %33 = load ptr, ptr %3, align 8
  ret ptr %33
}